
test.o:     file format elf64-x86-64


Disassembly of section .text:

0000000000000000 <_Z3addii>:
   0:	55                   	push   %rbp
   1:	48 89 e5             	mov    %rsp,%rbp
   4:	89 7d fc             	mov    %edi,-0x4(%rbp)
   7:	89 75 f8             	mov    %esi,-0x8(%rbp)
   a:	8b 55 fc             	mov    -0x4(%rbp),%edx
   d:	8b 45 f8             	mov    -0x8(%rbp),%eax
  10:	01 d0                	add    %edx,%eax
  12:	5d                   	pop    %rbp
  13:	c3                   	ret

0000000000000014 <_Z3addff>:
  14:	55                   	push   %rbp
  15:	48 89 e5             	mov    %rsp,%rbp
  18:	f3 0f 11 45 fc       	movss  %xmm0,-0x4(%rbp)
  1d:	f3 0f 11 4d f8       	movss  %xmm1,-0x8(%rbp)
  22:	f3 0f 10 45 fc       	movss  -0x4(%rbp),%xmm0
  27:	f3 0f 58 45 f8       	addss  -0x8(%rbp),%xmm0
  2c:	5d                   	pop    %rbp
  2d:	c3                   	ret

000000000000002e <main>:
  2e:	55                   	push   %rbp
  2f:	48 89 e5             	mov    %rsp,%rbp
  32:	48 83 ec 10          	sub    $0x10,%rsp
  36:	c7 45 fc 45 00 00 00 	movl   $0x45,-0x4(%rbp)
  3d:	c7 45 f8 a4 01 00 00 	movl   $0x1a4,-0x8(%rbp)
  44:	f3 0f 10 05 00 00 00 	movss  0x0(%rip),%xmm0        # 4c <main+0x1e>
  4b:	00 
  4c:	f3 0f 11 45 f4       	movss  %xmm0,-0xc(%rbp)
  51:	f3 0f 10 05 00 00 00 	movss  0x0(%rip),%xmm0        # 59 <main+0x2b>
  58:	00 
  59:	f3 0f 11 45 f0       	movss  %xmm0,-0x10(%rbp)
  5e:	8b 55 f8             	mov    -0x8(%rbp),%edx
  61:	8b 45 fc             	mov    -0x4(%rbp),%eax
  64:	89 d6                	mov    %edx,%esi
  66:	89 c7                	mov    %eax,%edi
  68:	e8 00 00 00 00       	call   6d <main+0x3f>
  6d:	f3 0f 10 45 f0       	movss  -0x10(%rbp),%xmm0
  72:	8b 45 f4             	mov    -0xc(%rbp),%eax
  75:	0f 28 c8             	movaps %xmm0,%xmm1
  78:	66 0f 6e c0          	movd   %eax,%xmm0
  7c:	e8 00 00 00 00       	call   81 <main+0x53>
  81:	b8 00 00 00 00       	mov    $0x0,%eax
  86:	c9                   	leave
  87:	c3                   	ret
